; Function Attrs: nounwind sspstrong uwtable
define dso_local void @tcg_gen_extr32_i64(ptr noundef %0, ptr noundef %1, ptr noundef %2) local_unnamed_addr #2 {
  %4 = tail call align 8 ptr @llvm.threadlocal.address.p0(ptr align 8 @tcg_ctx)
  %5 = load ptr, ptr %4, align 8
  %6 = ptrtoint ptr %0 to i64
  %7 = getelementptr inbounds nuw i8, ptr %5, i64 %6
  %8 = ptrtoint ptr %7 to i64
  %9 = ptrtoint ptr %2 to i64
  %10 = getelementptr inbounds nuw i8, ptr %5, i64 %9
  %11 = ptrtoint ptr %10 to i64
  %12 = tail call ptr @tcg_gen_op2(i32 noundef 109, i32 noundef 1, i64 noundef %8, i64 noundef %11)
  %13 = tail call ptr @tcg_constant_i64(i64 noundef 32) #6
  %14 = load ptr, ptr %4, align 8
  %15 = ptrtoint ptr %1 to i64
  %16 = getelementptr inbounds nuw i8, ptr %14, i64 %15
  %17 = ptrtoint ptr %16 to i64
  %18 = getelementptr inbounds nuw i8, ptr %14, i64 %9
  %19 = ptrtoint ptr %18 to i64
  %20 = ptrtoint ptr %13 to i64
  %21 = getelementptr inbounds nuw i8, ptr %14, i64 %20
  %22 = ptrtoint ptr %21 to i64
  %23 = tail call ptr @tcg_gen_op3(i32 noundef 91, i32 noundef 1, i64 noundef %17, i64 noundef %19, i64 noundef %22)
  ret void
}